target datalayout = "e-m:e-p270:32:32-p271:32:32-p272:64:64-i64:64-i128:128-f80:128-n8:16:32:64-S128"
target triple = "x86_64-unknown-linux-gnu"

%"class.absl::ScopedMockLog" = type <{ %"class.testing::internal::FunctionMocker", %"class.testing::internal::FunctionMocker.5", %"class.testing::internal::FunctionMocker.6", %"class.absl::ScopedMockLog::ForwardingSink", i8, %"struct.std::atomic", [6 x i8] }>
%"class.testing::internal::FunctionMocker" = type { %"class.testing::internal::UntypedFunctionMockerBase" }
%"class.testing::internal::UntypedFunctionMockerBase" = type { ptr, ptr, ptr, %"class.std::vector", %"class.std::vector.0" }
%"class.std::vector" = type { %"struct.std::_Vector_base" }
%"struct.std::_Vector_base" = type { %"struct.std::_Vector_base<const void *, std::allocator<const void *>>::_Vector_impl" }
%"struct.std::_Vector_base<const void *, std::allocator<const void *>>::_Vector_impl" = type { %"struct.std::_Vector_base<const void *, std::allocator<const void *>>::_Vector_impl_data" }
%"struct.std::_Vector_base<const void *, std::allocator<const void *>>::_Vector_impl_data" = type { ptr, ptr, ptr }
%"class.std::vector.0" = type { %"struct.std::_Vector_base.1" }
%"struct.std::_Vector_base.1" = type { %"struct.std::_Vector_base<std::shared_ptr<testing::internal::ExpectationBase>, std::allocator<std::shared_ptr<testing::internal::ExpectationBase>>>::_Vector_impl" }
%"struct.std::_Vector_base<std::shared_ptr<testing::internal::ExpectationBase>, std::allocator<std::shared_ptr<testing::internal::ExpectationBase>>>::_Vector_impl" = type { %"struct.std::_Vector_base<std::shared_ptr<testing::internal::ExpectationBase>, std::allocator<std::shared_ptr<testing::internal::ExpectationBase>>>::_Vector_impl_data" }
%"struct.std::_Vector_base<std::shared_ptr<testing::internal::ExpectationBase>, std::allocator<std::shared_ptr<testing::internal::ExpectationBase>>>::_Vector_impl_data" = type { ptr, ptr, ptr }
%"class.testing::internal::FunctionMocker.5" = type { %"class.testing::internal::UntypedFunctionMockerBase" }
%"class.testing::internal::FunctionMocker.6" = type { %"class.testing::internal::UntypedFunctionMockerBase" }
%"class.absl::ScopedMockLog::ForwardingSink" = type { %"class.absl::LogSink", ptr }
%"class.absl::LogSink" = type { ptr }
%"struct.std::atomic" = type { %"struct.std::__atomic_base" }
%"struct.std::__atomic_base" = type { i8 }

@.str = private unnamed_addr constant [127 x i8] c"generated/home/dtcxzyw/WorkSpace/Projects/compilers/llvm-opt-benchmark/bench/abseil-cpp/abseil-cpp/absl/log/scoped_mock_log.cc\00", align 1
@.str.5 = private unnamed_addr constant [20 x i8] c"Check %s failed: %s\00", align 1
@.str.10 = private unnamed_addr constant [19 x i8] c"is_capturing_logs_\00", align 1
@.str.11 = private unnamed_addr constant [94 x i8] c"StopCapturingLogs() can be called only when the absl::ScopedMockLog object is capturing logs.\00", align 1

; Function Attrs: mustprogress uwtable
define linkonce_odr dso_local void @_ZN4absl13RemoveLogSinkEPNS_7LogSinkE(ptr noundef %sink) #4 comdat {
entry:
  %sink.addr = alloca ptr, align 8
  store ptr %sink, ptr %sink.addr, align 8
  %0 = load ptr, ptr %sink.addr, align 8
  call void @_ZN4absl12log_internal13RemoveLogSinkEPNS_7LogSinkE(ptr noundef %0)
  ret void
}

; Function Attrs: mustprogress uwtable
define dso_local void @_ZN4absl13ScopedMockLog17StopCapturingLogsEv(ptr noundef nonnull align 8 dereferenceable(240) %this) #4 align 2 {
entry:
  %this.addr = alloca ptr, align 8
  %absl_raw_log_internal_basename = alloca ptr, align 8
  store ptr %this, ptr %this.addr, align 8
  %this1 = load ptr, ptr %this.addr, align 8
  br label %do.body

do.body:                                          ; preds = %entry
  %is_capturing_logs_ = getelementptr inbounds %"class.absl::ScopedMockLog", ptr %this1, i32 0, i32 4
  %0 = load i8, ptr %is_capturing_logs_, align 8
  %tobool = trunc i8 %0 to i1
  %lnot = xor i1 %tobool, true
  br i1 %lnot, label %if.then, label %if.end

if.then:                                          ; preds = %do.body
  br label %do.body2

do.body2:                                         ; preds = %if.then
  store ptr getelementptr (i8, ptr @.str, i64 108), ptr %absl_raw_log_internal_basename, align 8
  call void (i32, ptr, i32, ptr, ...) @_ZN4absl16raw_log_internal6RawLogENS_11LogSeverityEPKciS3_z(i32 noundef 3, ptr noundef getelementptr (i8, ptr @.str, i64 108), i32 noundef 74, ptr noundef @.str.5, ptr noundef @.str.10, ptr noundef @.str.11)
  br label %do.body3

do.body3:                                         ; preds = %do.body2
  unreachable

do.end:                                           ; No predecessors!
  br label %do.end4

do.end4:                                          ; preds = %do.end
  br label %if.end

if.end:                                           ; preds = %do.end4, %do.body
  br label %do.end5

do.end5:                                          ; preds = %if.end
  %is_capturing_logs_6 = getelementptr inbounds %"class.absl::ScopedMockLog", ptr %this1, i32 0, i32 4
  store i8 0, ptr %is_capturing_logs_6, align 8
  %sink_ = getelementptr inbounds %"class.absl::ScopedMockLog", ptr %this1, i32 0, i32 3
  call void @_ZN4absl13RemoveLogSinkEPNS_7LogSinkE(ptr noundef %sink_)
  ret void
}